target datalayout = "e-m:e-p270:32:32-p271:32:32-p272:64:64-i64:64-i128:128-f80:128-n8:16:32:64-S128"
target triple = "x86_64-pc-linux-gnu"

%"struct.Luau::TxnLog" = type { %"class.Luau::DenseHashMap", %"class.Luau::DenseHashMap.31", ptr, %"class.std::vector.34", i8, i8, ptr }
%"class.Luau::DenseHashMap" = type { %"class.Luau::detail::DenseHashTable" }
%"class.Luau::detail::DenseHashTable" = type <{ ptr, i64, i64, ptr, %"struct.Luau::DenseHashPointer", %"struct.std::equal_to", [6 x i8] }>
%"struct.Luau::DenseHashPointer" = type { i8 }
%"struct.std::equal_to" = type { i8 }
%"class.Luau::DenseHashMap.31" = type { %"class.Luau::detail::DenseHashTable.32" }
%"class.Luau::detail::DenseHashTable.32" = type <{ ptr, i64, i64, ptr, %"struct.Luau::DenseHashPointer", %"struct.std::equal_to.15", [6 x i8] }>
%"struct.std::equal_to.15" = type { i8 }
%"class.std::vector.34" = type { %"struct.std::_Vector_base.35" }
%"struct.std::_Vector_base.35" = type { %"struct.std::_Vector_base<std::pair<const void *, const void *>, std::allocator<std::pair<const void *, const void *>>>::_Vector_impl" }
%"struct.std::_Vector_base<std::pair<const void *, const void *>, std::allocator<std::pair<const void *, const void *>>>::_Vector_impl" = type { %"struct.std::_Vector_base<std::pair<const void *, const void *>, std::allocator<std::pair<const void *, const void *>>>::_Vector_impl_data" }
%"struct.std::_Vector_base<std::pair<const void *, const void *>, std::allocator<std::pair<const void *, const void *>>>::_Vector_impl_data" = type { ptr, ptr, ptr }
%"struct.std::pair.67" = type { ptr, ptr }
%"class.__gnu_cxx::__normal_iterator" = type { ptr }
%"struct.__gnu_cxx::__ops::_Iter_equals_val" = type { ptr }

; Function Attrs: mustprogress nounwind uwtable
define linkonce_odr dso_local void @_ZSt19__iterator_categoryIN9__gnu_cxx17__normal_iteratorIPSt4pairIPKvS4_ESt6vectorIS5_SaIS5_EEEEENSt15iterator_traitsIT_E17iterator_categoryERKSC_(ptr noundef nonnull align 8 dereferenceable(8) %0) #5 comdat {
  %2 = alloca ptr, align 8
  store ptr %0, ptr %2, align 8
  ret void
}

; Function Attrs: mustprogress nounwind uwtable
define linkonce_odr dso_local void @_ZN9__gnu_cxx5__ops16_Iter_equals_valIKSt4pairIPKvS4_EEC2ERS6_(ptr noundef nonnull align 8 dereferenceable(8) %0, ptr noundef nonnull align 8 dereferenceable(16) %1) unnamed_addr #5 comdat align 2 {
  %3 = alloca ptr, align 8
  %4 = alloca ptr, align 8
  store ptr %0, ptr %3, align 8
  store ptr %1, ptr %4, align 8
  %5 = load ptr, ptr %3, align 8
  %6 = getelementptr inbounds %"struct.__gnu_cxx::__ops::_Iter_equals_val", ptr %5, i32 0, i32 0
  %7 = load ptr, ptr %4, align 8
  store ptr %7, ptr %6, align 8
  ret void
}

; Function Attrs: mustprogress nounwind uwtable
define linkonce_odr dso_local noundef nonnull align 8 dereferenceable(8) ptr @_ZNK9__gnu_cxx17__normal_iteratorIPSt4pairIPKvS3_ESt6vectorIS4_SaIS4_EEE4baseEv(ptr noundef nonnull align 8 dereferenceable(8) %0) #5 comdat align 2 {
  %2 = alloca ptr, align 8
  store ptr %0, ptr %2, align 8
  %3 = load ptr, ptr %2, align 8
  %4 = getelementptr inbounds %"class.__gnu_cxx::__normal_iterator", ptr %3, i32 0, i32 0
  ret ptr %4
}

; Function Attrs: mustprogress uwtable
define linkonce_odr dso_local ptr @_ZSt9__find_ifIN9__gnu_cxx17__normal_iteratorIPSt4pairIPKvS4_ESt6vectorIS5_SaIS5_EEEENS0_5__ops16_Iter_equals_valIKS5_EEET_SF_SF_T0_(ptr %0, ptr %1, ptr %2) #2 comdat {
  %4 = alloca %"class.__gnu_cxx::__normal_iterator", align 8
  %5 = alloca %"class.__gnu_cxx::__normal_iterator", align 8
  %6 = alloca %"class.__gnu_cxx::__normal_iterator", align 8
  %7 = alloca %"struct.__gnu_cxx::__ops::_Iter_equals_val", align 8
  %8 = alloca %"class.__gnu_cxx::__normal_iterator", align 8
  %9 = alloca %"class.__gnu_cxx::__normal_iterator", align 8
  %10 = alloca %"struct.__gnu_cxx::__ops::_Iter_equals_val", align 8
  %11 = getelementptr inbounds %"class.__gnu_cxx::__normal_iterator", ptr %5, i32 0, i32 0
  store ptr %0, ptr %11, align 8
  %12 = getelementptr inbounds %"class.__gnu_cxx::__normal_iterator", ptr %6, i32 0, i32 0
  store ptr %1, ptr %12, align 8
  %13 = getelementptr inbounds %"struct.__gnu_cxx::__ops::_Iter_equals_val", ptr %7, i32 0, i32 0
  store ptr %2, ptr %13, align 8
  call void @llvm.memcpy.p0.p0.i64(ptr align 8 %8, ptr align 8 %5, i64 8, i1 false)
  call void @llvm.memcpy.p0.p0.i64(ptr align 8 %9, ptr align 8 %6, i64 8, i1 false)
  call void @llvm.memcpy.p0.p0.i64(ptr align 8 %10, ptr align 8 %7, i64 8, i1 false)
  call void @_ZSt19__iterator_categoryIN9__gnu_cxx17__normal_iteratorIPSt4pairIPKvS4_ESt6vectorIS5_SaIS5_EEEEENSt15iterator_traitsIT_E17iterator_categoryERKSC_(ptr noundef nonnull align 8 dereferenceable(8) %5)
  %14 = getelementptr inbounds %"class.__gnu_cxx::__normal_iterator", ptr %8, i32 0, i32 0
  %15 = load ptr, ptr %14, align 8
  %16 = getelementptr inbounds %"class.__gnu_cxx::__normal_iterator", ptr %9, i32 0, i32 0
  %17 = load ptr, ptr %16, align 8
  %18 = getelementptr inbounds %"struct.__gnu_cxx::__ops::_Iter_equals_val", ptr %10, i32 0, i32 0
  %19 = load ptr, ptr %18, align 8
  %20 = call ptr @_ZSt9__find_ifIN9__gnu_cxx17__normal_iteratorIPSt4pairIPKvS4_ESt6vectorIS5_SaIS5_EEEENS0_5__ops16_Iter_equals_valIKS5_EEET_SF_SF_T0_St26random_access_iterator_tag(ptr %15, ptr %17, ptr %19)
  %21 = getelementptr inbounds %"class.__gnu_cxx::__normal_iterator", ptr %4, i32 0, i32 0
  store ptr %20, ptr %21, align 8
  %22 = getelementptr inbounds %"class.__gnu_cxx::__normal_iterator", ptr %4, i32 0, i32 0
  %23 = load ptr, ptr %22, align 8
  ret ptr %23
}

; Function Attrs: mustprogress uwtable
define linkonce_odr dso_local ptr @_ZN9__gnu_cxx5__ops17__iter_equals_valIKSt4pairIPKvS4_EEENS0_16_Iter_equals_valIT_EERS8_(ptr noundef nonnull align 8 dereferenceable(16) %0) #2 comdat {
  %2 = alloca %"struct.__gnu_cxx::__ops::_Iter_equals_val", align 8
  %3 = alloca ptr, align 8
  store ptr %0, ptr %3, align 8
  %4 = load ptr, ptr %3, align 8
  call void @_ZN9__gnu_cxx5__ops16_Iter_equals_valIKSt4pairIPKvS4_EEC2ERS6_(ptr noundef nonnull align 8 dereferenceable(8) %2, ptr noundef nonnull align 8 dereferenceable(16) %4)
  %5 = getelementptr inbounds %"struct.__gnu_cxx::__ops::_Iter_equals_val", ptr %2, i32 0, i32 0
  %6 = load ptr, ptr %5, align 8
  ret ptr %6
}

; Function Attrs: mustprogress nounwind uwtable
define linkonce_odr dso_local void @_ZN9__gnu_cxx17__normal_iteratorIPSt4pairIPKvS3_ESt6vectorIS4_SaIS4_EEEC2ERKS5_(ptr noundef nonnull align 8 dereferenceable(8) %0, ptr noundef nonnull align 8 dereferenceable(8) %1) unnamed_addr #5 comdat align 2 {
  %3 = alloca ptr, align 8
  %4 = alloca ptr, align 8
  store ptr %0, ptr %3, align 8
  store ptr %1, ptr %4, align 8
  %5 = load ptr, ptr %3, align 8
  %6 = getelementptr inbounds %"class.__gnu_cxx::__normal_iterator", ptr %5, i32 0, i32 0
  %7 = load ptr, ptr %4, align 8
  %8 = load ptr, ptr %7, align 8
  store ptr %8, ptr %6, align 8
  ret void
}

; Function Attrs: mustprogress nounwind uwtable
define linkonce_odr dso_local void @_ZNSt4pairIPKvS1_EC2IRS1_S4_TnNSt9enable_ifIXaaclsr5_PCCPE22_MoveConstructiblePairIT_T0_EEclsr5_PCCPE30_ImplicitlyMoveConvertiblePairIS6_S7_EEEbE4typeELb1EEEOS6_OS7_(ptr noundef nonnull align 8 dereferenceable(16) %0, ptr noundef nonnull align 8 dereferenceable(8) %1, ptr noundef nonnull align 8 dereferenceable(8) %2) unnamed_addr #5 comdat align 2 {
  %4 = alloca ptr, align 8
  %5 = alloca ptr, align 8
  %6 = alloca ptr, align 8
  store ptr %0, ptr %4, align 8
  store ptr %1, ptr %5, align 8
  store ptr %2, ptr %6, align 8
  %7 = load ptr, ptr %4, align 8
  %8 = getelementptr inbounds %"struct.std::pair.67", ptr %7, i32 0, i32 0
  %9 = load ptr, ptr %5, align 8
  %10 = load ptr, ptr %9, align 8
  store ptr %10, ptr %8, align 8
  %11 = getelementptr inbounds %"struct.std::pair.67", ptr %7, i32 0, i32 1
  %12 = load ptr, ptr %6, align 8
  %13 = load ptr, ptr %12, align 8
  store ptr %13, ptr %11, align 8
  ret void
}

; Function Attrs: mustprogress nounwind uwtable
define linkonce_odr dso_local noundef zeroext i1 @_ZN9__gnu_cxxneIPSt4pairIPKvS3_ESt6vectorIS4_SaIS4_EEEEbRKNS_17__normal_iteratorIT_T0_EESE_(ptr noundef nonnull align 8 dereferenceable(8) %0, ptr noundef nonnull align 8 dereferenceable(8) %1) #5 comdat {
  %3 = alloca ptr, align 8
  %4 = alloca ptr, align 8
  store ptr %0, ptr %3, align 8
  store ptr %1, ptr %4, align 8
  %5 = load ptr, ptr %3, align 8
  %6 = call noundef nonnull align 8 dereferenceable(8) ptr @_ZNK9__gnu_cxx17__normal_iteratorIPSt4pairIPKvS3_ESt6vectorIS4_SaIS4_EEE4baseEv(ptr noundef nonnull align 8 dereferenceable(8) %5) #3
  %7 = load ptr, ptr %6, align 8
  %8 = load ptr, ptr %4, align 8
  %9 = call noundef nonnull align 8 dereferenceable(8) ptr @_ZNK9__gnu_cxx17__normal_iteratorIPSt4pairIPKvS3_ESt6vectorIS4_SaIS4_EEE4baseEv(ptr noundef nonnull align 8 dereferenceable(8) %8) #3
  %10 = load ptr, ptr %9, align 8
  %11 = icmp ne ptr %7, %10
  ret i1 %11
}

; Function Attrs: mustprogress uwtable
define linkonce_odr dso_local ptr @_ZSt4findIN9__gnu_cxx17__normal_iteratorIPSt4pairIPKvS4_ESt6vectorIS5_SaIS5_EEEES5_ET_SB_SB_RKT0_(ptr %0, ptr %1, ptr noundef nonnull align 8 dereferenceable(16) %2) #2 comdat {
  %4 = alloca %"class.__gnu_cxx::__normal_iterator", align 8
  %5 = alloca %"class.__gnu_cxx::__normal_iterator", align 8
  %6 = alloca %"class.__gnu_cxx::__normal_iterator", align 8
  %7 = alloca ptr, align 8
  %8 = alloca %"class.__gnu_cxx::__normal_iterator", align 8
  %9 = alloca %"class.__gnu_cxx::__normal_iterator", align 8
  %10 = alloca %"struct.__gnu_cxx::__ops::_Iter_equals_val", align 8
  %11 = getelementptr inbounds %"class.__gnu_cxx::__normal_iterator", ptr %5, i32 0, i32 0
  store ptr %0, ptr %11, align 8
  %12 = getelementptr inbounds %"class.__gnu_cxx::__normal_iterator", ptr %6, i32 0, i32 0
  store ptr %1, ptr %12, align 8
  store ptr %2, ptr %7, align 8
  call void @llvm.memcpy.p0.p0.i64(ptr align 8 %8, ptr align 8 %5, i64 8, i1 false)
  call void @llvm.memcpy.p0.p0.i64(ptr align 8 %9, ptr align 8 %6, i64 8, i1 false)
  %13 = load ptr, ptr %7, align 8
  %14 = call ptr @_ZN9__gnu_cxx5__ops17__iter_equals_valIKSt4pairIPKvS4_EEENS0_16_Iter_equals_valIT_EERS8_(ptr noundef nonnull align 8 dereferenceable(16) %13)
  %15 = getelementptr inbounds %"struct.__gnu_cxx::__ops::_Iter_equals_val", ptr %10, i32 0, i32 0
  store ptr %14, ptr %15, align 8
  %16 = getelementptr inbounds %"class.__gnu_cxx::__normal_iterator", ptr %8, i32 0, i32 0
  %17 = load ptr, ptr %16, align 8
  %18 = getelementptr inbounds %"class.__gnu_cxx::__normal_iterator", ptr %9, i32 0, i32 0
  %19 = load ptr, ptr %18, align 8
  %20 = getelementptr inbounds %"struct.__gnu_cxx::__ops::_Iter_equals_val", ptr %10, i32 0, i32 0
  %21 = load ptr, ptr %20, align 8
  %22 = call ptr @_ZSt9__find_ifIN9__gnu_cxx17__normal_iteratorIPSt4pairIPKvS4_ESt6vectorIS5_SaIS5_EEEENS0_5__ops16_Iter_equals_valIKS5_EEET_SF_SF_T0_(ptr %17, ptr %19, ptr %21)
  %23 = getelementptr inbounds %"class.__gnu_cxx::__normal_iterator", ptr %4, i32 0, i32 0
  store ptr %22, ptr %23, align 8
  %24 = getelementptr inbounds %"class.__gnu_cxx::__normal_iterator", ptr %4, i32 0, i32 0
  %25 = load ptr, ptr %24, align 8
  ret ptr %25
}

; Function Attrs: mustprogress nounwind uwtable
define linkonce_odr dso_local ptr @_ZNSt6vectorISt4pairIPKvS2_ESaIS3_EE5beginEv(ptr noundef nonnull align 8 dereferenceable(24) %0) #5 comdat align 2 {
  %2 = alloca %"class.__gnu_cxx::__normal_iterator", align 8
  %3 = alloca ptr, align 8
  store ptr %0, ptr %3, align 8
  %4 = load ptr, ptr %3, align 8
  %5 = getelementptr inbounds %"struct.std::_Vector_base.35", ptr %4, i32 0, i32 0
  %6 = getelementptr inbounds %"struct.std::_Vector_base<std::pair<const void *, const void *>, std::allocator<std::pair<const void *, const void *>>>::_Vector_impl_data", ptr %5, i32 0, i32 0
  call void @_ZN9__gnu_cxx17__normal_iteratorIPSt4pairIPKvS3_ESt6vectorIS4_SaIS4_EEEC2ERKS5_(ptr noundef nonnull align 8 dereferenceable(8) %2, ptr noundef nonnull align 8 dereferenceable(8) %6) #3
  %7 = getelementptr inbounds %"class.__gnu_cxx::__normal_iterator", ptr %2, i32 0, i32 0
  %8 = load ptr, ptr %7, align 8
  ret ptr %8
}

; Function Attrs: mustprogress nounwind uwtable
define linkonce_odr dso_local ptr @_ZNSt6vectorISt4pairIPKvS2_ESaIS3_EE3endEv(ptr noundef nonnull align 8 dereferenceable(24) %0) #5 comdat align 2 {
  %2 = alloca %"class.__gnu_cxx::__normal_iterator", align 8
  %3 = alloca ptr, align 8
  store ptr %0, ptr %3, align 8
  %4 = load ptr, ptr %3, align 8
  %5 = getelementptr inbounds %"struct.std::_Vector_base.35", ptr %4, i32 0, i32 0
  %6 = getelementptr inbounds %"struct.std::_Vector_base<std::pair<const void *, const void *>, std::allocator<std::pair<const void *, const void *>>>::_Vector_impl_data", ptr %5, i32 0, i32 1
  call void @_ZN9__gnu_cxx17__normal_iteratorIPSt4pairIPKvS3_ESt6vectorIS4_SaIS4_EEEC2ERKS5_(ptr noundef nonnull align 8 dereferenceable(8) %2, ptr noundef nonnull align 8 dereferenceable(8) %6) #3
  %7 = getelementptr inbounds %"class.__gnu_cxx::__normal_iterator", ptr %2, i32 0, i32 0
  %8 = load ptr, ptr %7, align 8
  ret ptr %8
}

; Function Attrs: mustprogress uwtable
define linkonce_odr dso_local { ptr, ptr } @_ZSt9make_pairIRPKvS2_ESt4pairINSt25__strip_reference_wrapperINSt5decayIT_E4typeEE6__typeENS4_INS5_IT0_E4typeEE6__typeEEOS6_OSB_(ptr noundef nonnull align 8 dereferenceable(8) %0, ptr noundef nonnull align 8 dereferenceable(8) %1) #2 comdat {
  %3 = alloca %"struct.std::pair.67", align 8
  %4 = alloca ptr, align 8
  %5 = alloca ptr, align 8
  store ptr %0, ptr %4, align 8
  store ptr %1, ptr %5, align 8
  %6 = load ptr, ptr %4, align 8
  %7 = load ptr, ptr %5, align 8
  call void @_ZNSt4pairIPKvS1_EC2IRS1_S4_TnNSt9enable_ifIXaaclsr5_PCCPE22_MoveConstructiblePairIT_T0_EEclsr5_PCCPE30_ImplicitlyMoveConvertiblePairIS6_S7_EEEbE4typeELb1EEEOS6_OS7_(ptr noundef nonnull align 8 dereferenceable(16) %3, ptr noundef nonnull align 8 dereferenceable(8) %6, ptr noundef nonnull align 8 dereferenceable(8) %7)
  %8 = load { ptr, ptr }, ptr %3, align 8
  ret { ptr, ptr } %8
}

; Function Attrs: mustprogress uwtable
define dso_local noundef zeroext i1 @_ZNK4Luau6TxnLog8haveSeenEPKvS2_(ptr noundef nonnull align 8 dereferenceable(128) %0, ptr noundef %1, ptr noundef %2) #2 align 2 {
  %4 = alloca i1, align 1
  %5 = alloca ptr, align 8
  %6 = alloca ptr, align 8
  %7 = alloca ptr, align 8
  %8 = alloca %"struct.std::pair.67", align 8
  %9 = alloca %"class.__gnu_cxx::__normal_iterator", align 8
  %10 = alloca %"class.__gnu_cxx::__normal_iterator", align 8
  %11 = alloca %"class.__gnu_cxx::__normal_iterator", align 8
  %12 = alloca %"class.__gnu_cxx::__normal_iterator", align 8
  store ptr %0, ptr %5, align 8
  store ptr %1, ptr %6, align 8
  store ptr %2, ptr %7, align 8
  %13 = load ptr, ptr %5, align 8
  %14 = load ptr, ptr %6, align 8
  %15 = load ptr, ptr %7, align 8
  %16 = icmp ugt ptr %14, %15
  br i1 %16, label %17, label %23

17:                                               ; preds = %3
  %18 = call { ptr, ptr } @_ZSt9make_pairIRPKvS2_ESt4pairINSt25__strip_reference_wrapperINSt5decayIT_E4typeEE6__typeENS4_INS5_IT0_E4typeEE6__typeEEOS6_OSB_(ptr noundef nonnull align 8 dereferenceable(8) %6, ptr noundef nonnull align 8 dereferenceable(8) %7)
  %19 = getelementptr inbounds { ptr, ptr }, ptr %8, i32 0, i32 0
  %20 = extractvalue { ptr, ptr } %18, 0
  store ptr %20, ptr %19, align 8
  %21 = getelementptr inbounds { ptr, ptr }, ptr %8, i32 0, i32 1
  %22 = extractvalue { ptr, ptr } %18, 1
  store ptr %22, ptr %21, align 8
  br label %29

23:                                               ; preds = %3
  %24 = call { ptr, ptr } @_ZSt9make_pairIRPKvS2_ESt4pairINSt25__strip_reference_wrapperINSt5decayIT_E4typeEE6__typeENS4_INS5_IT0_E4typeEE6__typeEEOS6_OSB_(ptr noundef nonnull align 8 dereferenceable(8) %7, ptr noundef nonnull align 8 dereferenceable(8) %6)
  %25 = getelementptr inbounds { ptr, ptr }, ptr %8, i32 0, i32 0
  %26 = extractvalue { ptr, ptr } %24, 0
  store ptr %26, ptr %25, align 8
  %27 = getelementptr inbounds { ptr, ptr }, ptr %8, i32 0, i32 1
  %28 = extractvalue { ptr, ptr } %24, 1
  store ptr %28, ptr %27, align 8
  br label %29

29:                                               ; preds = %23, %17
  %30 = getelementptr inbounds %"struct.Luau::TxnLog", ptr %13, i32 0, i32 6
  %31 = load ptr, ptr %30, align 8
  %32 = call ptr @_ZNSt6vectorISt4pairIPKvS2_ESaIS3_EE3endEv(ptr noundef nonnull align 8 dereferenceable(24) %31) #3
  %33 = getelementptr inbounds %"class.__gnu_cxx::__normal_iterator", ptr %9, i32 0, i32 0
  store ptr %32, ptr %33, align 8
  %34 = getelementptr inbounds %"struct.Luau::TxnLog", ptr %13, i32 0, i32 6
  %35 = load ptr, ptr %34, align 8
  %36 = call ptr @_ZNSt6vectorISt4pairIPKvS2_ESaIS3_EE5beginEv(ptr noundef nonnull align 8 dereferenceable(24) %35) #3
  %37 = getelementptr inbounds %"class.__gnu_cxx::__normal_iterator", ptr %11, i32 0, i32 0
  store ptr %36, ptr %37, align 8
  %38 = getelementptr inbounds %"struct.Luau::TxnLog", ptr %13, i32 0, i32 6
  %39 = load ptr, ptr %38, align 8
  %40 = call ptr @_ZNSt6vectorISt4pairIPKvS2_ESaIS3_EE3endEv(ptr noundef nonnull align 8 dereferenceable(24) %39) #3
  %41 = getelementptr inbounds %"class.__gnu_cxx::__normal_iterator", ptr %12, i32 0, i32 0
  store ptr %40, ptr %41, align 8
  %42 = getelementptr inbounds %"class.__gnu_cxx::__normal_iterator", ptr %11, i32 0, i32 0
  %43 = load ptr, ptr %42, align 8
  %44 = getelementptr inbounds %"class.__gnu_cxx::__normal_iterator", ptr %12, i32 0, i32 0
  %45 = load ptr, ptr %44, align 8
  %46 = call ptr @_ZSt4findIN9__gnu_cxx17__normal_iteratorIPSt4pairIPKvS4_ESt6vectorIS5_SaIS5_EEEES5_ET_SB_SB_RKT0_(ptr %43, ptr %45, ptr noundef nonnull align 8 dereferenceable(16) %8)
  %47 = getelementptr inbounds %"class.__gnu_cxx::__normal_iterator", ptr %10, i32 0, i32 0
  store ptr %46, ptr %47, align 8
  %48 = call noundef zeroext i1 @_ZN9__gnu_cxxneIPSt4pairIPKvS3_ESt6vectorIS4_SaIS4_EEEEbRKNS_17__normal_iteratorIT_T0_EESE_(ptr noundef nonnull align 8 dereferenceable(8) %9, ptr noundef nonnull align 8 dereferenceable(8) %10) #3
  br i1 %48, label %49, label %50

49:                                               ; preds = %29
  store i1 true, ptr %4, align 1
  br label %51

50:                                               ; preds = %29
  store i1 false, ptr %4, align 1
  br label %51

51:                                               ; preds = %50, %49
  %52 = load i1, ptr %4, align 1
  ret i1 %52
}